ccopy_reg
_reconstructor
p1
(cargparse
Namespace
p2
c__builtin__
object
p3
NtRp4
(dp5
S'num_epochs'
p6
I50
sS'grad_clip'
p7
F5
sS'rnn_size'
p8
I512
sS'data_dir'
p9
S'//homes/ljs116/tensorflow/char-rnn-tensorflow/data/best/'
p10
sS'vocab_size'
p11
I1216
sS'learning_rate'
p12
F0.0015
sS'save_dir'
p13
S'//homes/ljs116/tensorflow/char-rnn-tensorflow/save/'
p14
sS'batch_size'
p15
I50
sS'decay_rate'
p16
F0.96999999999999997
sS'init_from'
p17
S'//homes/ljs116/tensorflow/char-rnn-tensorflow/save/'
p18
sS'seq_length'
p19
I25
sS'num_layers'
p20
I3
sS'model'
p21
S'lstm'
p22
sS'save_every'
p23
I1000
sb.